; Function Attrs: mustprogress nounwind willreturn uwtable
define internal noundef i32 @i_free_name_entry(i64 noundef %0, i64 noundef %1, i64 %2) #15 {
  %4 = inttoptr i64 %1 to ptr
  %5 = load ptr, ptr %4, align 8, !tbaa !37
  tail call void @free(ptr noundef %5) #24
  %6 = getelementptr inbounds nuw i8, ptr %4, i64 24
  %7 = load ptr, ptr %6, align 8, !tbaa !42
  %.not = icmp eq ptr %7, null
  br i1 %.not, label %9, label %8

8:                                                ; preds = %3
  tail call void @free(ptr noundef nonnull %7) #24
  br label %9

9:                                                ; preds = %8, %3
  %10 = inttoptr i64 %0 to ptr
  tail call void @free(ptr noundef %10) #24
  tail call void @free(ptr noundef nonnull %4) #24
  ret i32 2
}